target datalayout = "e-m:e-p270:32:32-p271:32:32-p272:64:64-i64:64-i128:128-f80:128-n8:16:32:64-S128"
target triple = "x86_64-pc-linux-gnu"

%"struct.Luau::Position" = type { i32, i32 }
%"struct.Luau::FindFullAncestry" = type <{ %"class.Luau::AstVisitor", %"class.std::vector", %"struct.Luau::Position", %"struct.Luau::Position", i8, [7 x i8] }>
%"class.Luau::AstVisitor" = type { ptr }
%"class.std::vector" = type { %"struct.std::_Vector_base" }
%"struct.std::_Vector_base" = type { %"struct.std::_Vector_base<Luau::AstNode *, std::allocator<Luau::AstNode *>>::_Vector_impl" }
%"struct.std::_Vector_base<Luau::AstNode *, std::allocator<Luau::AstNode *>>::_Vector_impl" = type { %"struct.std::_Vector_base<Luau::AstNode *, std::allocator<Luau::AstNode *>>::_Vector_impl_data" }
%"struct.std::_Vector_base<Luau::AstNode *, std::allocator<Luau::AstNode *>>::_Vector_impl_data" = type { ptr, ptr, ptr }
%"class.Luau::AstNode" = type <{ ptr, i32, %"struct.Luau::Location", [4 x i8] }>
%"struct.Luau::Location" = type { %"struct.Luau::Position", %"struct.Luau::Position" }
%"class.Luau::AstStatFunction" = type { %"class.Luau::AstStat.base", ptr, ptr }
%"class.Luau::AstStat.base" = type { %"class.Luau::AstNode.base", i8 }
%"class.Luau::AstNode.base" = type <{ ptr, i32, %"struct.Luau::Location" }>

; Function Attrs: mustprogress uwtable
define dso_local noundef zeroext i1 @_ZN4Luau16FindFullAncestry5visitEPNS_15AstStatFunctionE(ptr noundef nonnull align 8 dereferenceable(56) %0, ptr noundef %1) unnamed_addr #5 align 2 {
  %3 = alloca ptr, align 8
  %4 = alloca ptr, align 8
  store ptr %0, ptr %3, align 8, !tbaa !8
  store ptr %1, ptr %4, align 8, !tbaa !36
  %5 = load ptr, ptr %3, align 8
  %6 = load ptr, ptr %4, align 8, !tbaa !36
  %7 = call noundef zeroext i1 @_ZN4Luau16FindFullAncestry5visitEPNS_7AstNodeE(ptr noundef nonnull align 8 dereferenceable(56) %5, ptr noundef %6)
  %8 = load ptr, ptr %4, align 8, !tbaa !36
  %9 = getelementptr inbounds nuw %"class.Luau::AstStatFunction", ptr %8, i32 0, i32 1
  %10 = load ptr, ptr %9, align 8, !tbaa !38
  %11 = getelementptr inbounds nuw %"class.Luau::AstNode", ptr %10, i32 0, i32 2
  %12 = getelementptr inbounds nuw %"struct.Luau::FindFullAncestry", ptr %5, i32 0, i32 2
  %13 = call noundef zeroext i1 @_ZNK4Luau8Location8containsERKNS_8PositionE(ptr noundef nonnull align 4 dereferenceable(16) %11, ptr noundef nonnull align 4 dereferenceable(8) %12)
  br i1 %13, label %14, label %21

14:                                               ; preds = %2
  %15 = load ptr, ptr %4, align 8, !tbaa !36
  %16 = getelementptr inbounds nuw %"class.Luau::AstStatFunction", ptr %15, i32 0, i32 1
  %17 = load ptr, ptr %16, align 8, !tbaa !38
  %18 = load ptr, ptr %17, align 8, !tbaa !13
  %19 = getelementptr inbounds ptr, ptr %18, i64 0
  %20 = load ptr, ptr %19, align 8
  call void %20(ptr noundef nonnull align 8 dereferenceable(28) %17, ptr noundef %5)
  br label %36

21:                                               ; preds = %2
  %22 = load ptr, ptr %4, align 8, !tbaa !36
  %23 = getelementptr inbounds nuw %"class.Luau::AstStatFunction", ptr %22, i32 0, i32 2
  %24 = load ptr, ptr %23, align 8, !tbaa !45
  %25 = getelementptr inbounds nuw %"class.Luau::AstNode", ptr %24, i32 0, i32 2
  %26 = getelementptr inbounds nuw %"struct.Luau::FindFullAncestry", ptr %5, i32 0, i32 2
  %27 = call noundef zeroext i1 @_ZNK4Luau8Location8containsERKNS_8PositionE(ptr noundef nonnull align 4 dereferenceable(16) %25, ptr noundef nonnull align 4 dereferenceable(8) %26)
  br i1 %27, label %28, label %35

28:                                               ; preds = %21
  %29 = load ptr, ptr %4, align 8, !tbaa !36
  %30 = getelementptr inbounds nuw %"class.Luau::AstStatFunction", ptr %29, i32 0, i32 2
  %31 = load ptr, ptr %30, align 8, !tbaa !45
  %32 = load ptr, ptr %31, align 8, !tbaa !13
  %33 = getelementptr inbounds ptr, ptr %32, i64 0
  %34 = load ptr, ptr %33, align 8
  call void %34(ptr noundef nonnull align 8 dereferenceable(212) %31, ptr noundef %5)
  br label %35

35:                                               ; preds = %28, %21
  br label %36

36:                                               ; preds = %35, %14
  ret i1 false
}