; Function Attrs: mustprogress uwtable
define dso_local noundef zeroext i1 @_ZN4Luau16FindFullAncestry5visitEPNS_15AstStatFunctionE(ptr noundef nonnull align 8 dereferenceable(56) %0, ptr noundef %1) unnamed_addr #4 align 2 {
  %3 = tail call noundef zeroext i1 @_ZN4Luau16FindFullAncestry5visitEPNS_7AstNodeE(ptr noundef nonnull align 8 dereferenceable(56) %0, ptr noundef %1)
  %4 = getelementptr inbounds nuw i8, ptr %1, i64 32
  %5 = load ptr, ptr %4, align 8, !tbaa !30
  %6 = getelementptr inbounds nuw i8, ptr %5, i64 12
  %7 = getelementptr inbounds nuw i8, ptr %0, i64 32
  %8 = tail call noundef zeroext i1 @_ZNK4Luau8Location8containsERKNS_8PositionE(ptr noundef nonnull align 4 dereferenceable(16) %6, ptr noundef nonnull align 4 dereferenceable(8) %7)
  br i1 %8, label %.sink.split, label %9

9:                                                ; preds = %2
  %10 = getelementptr inbounds nuw i8, ptr %1, i64 40
  %11 = load ptr, ptr %10, align 8, !tbaa !37
  %12 = getelementptr inbounds nuw i8, ptr %11, i64 12
  %13 = tail call noundef zeroext i1 @_ZNK4Luau8Location8containsERKNS_8PositionE(ptr noundef nonnull align 4 dereferenceable(16) %12, ptr noundef nonnull align 4 dereferenceable(8) %7)
  br i1 %13, label %.sink.split, label %16

.sink.split:                                      ; preds = %9, %2
  %.sink8.in = phi ptr [ %4, %2 ], [ %10, %9 ]
  %.sink8 = load ptr, ptr %.sink8.in, align 8, !tbaa !38
  %14 = load ptr, ptr %.sink8, align 8, !tbaa !8
  %15 = load ptr, ptr %14, align 8
  tail call void %15(ptr noundef nonnull align 8 dereferenceable(28) %.sink8, ptr noundef nonnull %0)
  br label %16

16:                                               ; preds = %.sink.split, %9
  ret i1 false
}